target datalayout = "e-m:e-p270:32:32-p271:32:32-p272:64:64-i64:64-i128:128-f80:128-n8:16:32:64-S128"
target triple = "x86_64-pc-linux-gnu"

%struct.TablespaceList = type { ptr, ptr }
%struct.TablespaceListCell = type { ptr, [1024 x i8], [1024 x i8] }

@tablespace_dirs = internal global %struct.TablespaceList zeroinitializer, align 8

; Function Attrs: nounwind uwtable
define internal ptr @get_tablespace_mapping(ptr noundef %0) #0 {
  %2 = alloca ptr, align 8
  %3 = alloca ptr, align 8
  %4 = alloca ptr, align 8
  %5 = alloca [1024 x i8], align 16
  %6 = alloca i32, align 4
  store ptr %0, ptr %3, align 8
  call void @llvm.lifetime.start.p0(i64 8, ptr %4) #12
  call void @llvm.lifetime.start.p0(i64 1024, ptr %5) #12
  %7 = getelementptr inbounds [1024 x i8], ptr %5, i64 0, i64 0
  %8 = load ptr, ptr %3, align 8
  %9 = call i64 @strlcpy(ptr noundef %7, ptr noundef %8, i64 noundef 1024)
  %10 = getelementptr inbounds [1024 x i8], ptr %5, i64 0, i64 0
  call void @canonicalize_path(ptr noundef %10)
  %11 = load ptr, ptr @tablespace_dirs, align 8
  store ptr %11, ptr %4, align 8
  br label %12

12:                                               ; preds = %27, %1
  %13 = load ptr, ptr %4, align 8
  %14 = icmp ne ptr %13, null
  br i1 %14, label %15, label %31

15:                                               ; preds = %12
  %16 = getelementptr inbounds [1024 x i8], ptr %5, i64 0, i64 0
  %17 = load ptr, ptr %4, align 8
  %18 = getelementptr inbounds nuw %struct.TablespaceListCell, ptr %17, i32 0, i32 1
  %19 = getelementptr inbounds [1024 x i8], ptr %18, i64 0, i64 0
  %20 = call i32 @strcmp(ptr noundef %16, ptr noundef %19) #13
  %21 = icmp eq i32 %20, 0
  br i1 %21, label %22, label %26

22:                                               ; preds = %15
  %23 = load ptr, ptr %4, align 8
  %24 = getelementptr inbounds nuw %struct.TablespaceListCell, ptr %23, i32 0, i32 2
  %25 = getelementptr inbounds [1024 x i8], ptr %24, i64 0, i64 0
  store ptr %25, ptr %2, align 8
  store i32 1, ptr %6, align 4
  br label %33

26:                                               ; preds = %15
  br label %27

27:                                               ; preds = %26
  %28 = load ptr, ptr %4, align 8
  %29 = getelementptr inbounds nuw %struct.TablespaceListCell, ptr %28, i32 0, i32 0
  %30 = load ptr, ptr %29, align 8
  store ptr %30, ptr %4, align 8
  br label %12, !llvm.loop !14

31:                                               ; preds = %12
  %32 = load ptr, ptr %3, align 8
  store ptr %32, ptr %2, align 8
  store i32 1, ptr %6, align 4
  br label %33

33:                                               ; preds = %31, %22
  call void @llvm.lifetime.end.p0(i64 1024, ptr %5) #12
  call void @llvm.lifetime.end.p0(i64 8, ptr %4) #12
  %34 = load ptr, ptr %2, align 8
  ret ptr %34
}