; Function Attrs: nounwind uwtable
define internal ptr @get_tablespace_mapping(ptr noundef %0) #0 {
  %2 = alloca [1024 x i8], align 16
  call void @llvm.lifetime.start.p0(i64 1024, ptr nonnull %2) #17
  %3 = call i64 @strlcpy(ptr noundef nonnull dereferenceable(1) %2, ptr noundef nonnull dereferenceable(1) %0, i64 noundef 1024) #17
  call void @canonicalize_path(ptr noundef nonnull %2) #17
  br label %4

4:                                                ; preds = %5, %1
  %.0.in = phi ptr [ @tablespace_dirs.0, %1 ], [ %.0, %5 ]
  %.0 = load ptr, ptr %.0.in, align 8
  %.not = icmp eq ptr %.0, null
  br i1 %.not, label %.loopexit, label %5

5:                                                ; preds = %4
  %6 = getelementptr inbounds nuw i8, ptr %.0, i64 8
  %7 = call i32 @strcmp(ptr noundef nonnull dereferenceable(1) %2, ptr noundef nonnull dereferenceable(1) %6) #18
  %8 = icmp eq i32 %7, 0
  br i1 %8, label %9, label %4, !llvm.loop !10

9:                                                ; preds = %5
  %10 = getelementptr inbounds nuw i8, ptr %.0, i64 1032
  br label %.loopexit

.loopexit:                                        ; preds = %4, %9
  %.07 = phi ptr [ %10, %9 ], [ %0, %4 ]
  call void @llvm.lifetime.end.p0(i64 1024, ptr nonnull %2) #17
  ret ptr %.07
}